; Function Attrs: mustprogress uwtable
define noundef range(i64 0, 2) i64 @_ZN32pxrInternal_v0_24__pxrReserved__21UsdImagingPrimAdapter25SampleExtComputationInputERKNS_7UsdPrimERKNS_7SdfPathERKNS_7TfTokenENS_11UsdTimeCodeEPKNS_26UsdImagingInstancerContextEmPfPNS_7VtValueE(ptr noundef nonnull align 8 dereferenceable(32) %0, ptr noundef nonnull align 8 dereferenceable(32) %1, ptr noundef nonnull align 4 dereferenceable(8) %2, ptr noundef nonnull align 8 dereferenceable(8) %3, double %4, ptr noundef %5, i64 noundef %6, ptr nocapture noundef writeonly %7, ptr noundef %8) unnamed_addr #0 align 2 personality ptr @__gxx_personality_v0 {
  %10 = alloca %"class.pxrInternal_v0_24__pxrReserved__::VtValue", align 8
  %.not = icmp eq i64 %6, 0
  br i1 %.not, label %_ZN32pxrInternal_v0_24__pxrReserved__7VtValueD2Ev.exit, label %11

11:                                               ; preds = %9
  store float 0.000000e+00, ptr %7, align 4
  %12 = load ptr, ptr %0, align 8
  %13 = getelementptr inbounds i8, ptr %12, i64 480
  %14 = load ptr, ptr %13, align 8
  call void %14(ptr dead_on_unwind nonnull writable sret(%"class.pxrInternal_v0_24__pxrReserved__::VtValue") align 8 %10, ptr noundef nonnull align 8 dereferenceable(32) %0, ptr noundef nonnull align 8 dereferenceable(32) %1, ptr noundef nonnull align 4 dereferenceable(8) %2, ptr noundef nonnull align 8 dereferenceable(8) %3, double %4, ptr noundef %5)
  %.not.i = icmp eq ptr %8, %10
  br i1 %.not.i, label %_ZN32pxrInternal_v0_24__pxrReserved__7VtValueaSEOS0_.exit, label %15

15:                                               ; preds = %11
  call void @_ZN32pxrInternal_v0_24__pxrReserved__7VtValue5_MoveERS0_S1_(ptr noundef nonnull align 8 dereferenceable(16) %10, ptr noundef nonnull align 8 dereferenceable(16) %8) #30
  br label %_ZN32pxrInternal_v0_24__pxrReserved__7VtValueaSEOS0_.exit

_ZN32pxrInternal_v0_24__pxrReserved__7VtValueaSEOS0_.exit: ; preds = %11, %15
  %16 = getelementptr inbounds nuw i8, ptr %10, i64 8
  %17 = load ptr, ptr %16, align 8
  %18 = ptrtoint ptr %17 to i64
  %.not.i.i = icmp eq ptr %17, null
  %19 = and i64 %18, 3
  %20 = icmp eq i64 %19, 3
  %or.cond.i.i = or i1 %.not.i.i, %20
  br i1 %or.cond.i.i, label %_ZN32pxrInternal_v0_24__pxrReserved__7VtValueD2Ev.exit, label %21

21:                                               ; preds = %_ZN32pxrInternal_v0_24__pxrReserved__7VtValueaSEOS0_.exit
  %22 = and i64 %18, -8
  %23 = inttoptr i64 %22 to ptr
  %24 = getelementptr inbounds nuw i8, ptr %23, i64 32
  %25 = load ptr, ptr %24, align 8
  invoke void %25(ptr noundef nonnull align 8 dereferenceable(8) %10)
          to label %_ZN32pxrInternal_v0_24__pxrReserved__7VtValueD2Ev.exit unwind label %26

26:                                               ; preds = %21
  %27 = landingpad { ptr, i32 }
          catch ptr null
  %28 = extractvalue { ptr, i32 } %27, 0
  call void @__clang_call_terminate(ptr %28) #32
  unreachable

_ZN32pxrInternal_v0_24__pxrReserved__7VtValueD2Ev.exit: ; preds = %21, %_ZN32pxrInternal_v0_24__pxrReserved__7VtValueaSEOS0_.exit, %9
  %.0 = phi i64 [ 0, %9 ], [ 1, %_ZN32pxrInternal_v0_24__pxrReserved__7VtValueaSEOS0_.exit ], [ 1, %21 ]
  ret i64 %.0
}